; Function Attrs: nounwind uwtable
define ptr @l_Lean_Omega_Constraint_combo(ptr noundef %0, ptr noundef %1, ptr noundef %2, ptr noundef %3) local_unnamed_addr #1 {
  %5 = tail call ptr @l_Lean_Omega_Constraint_scale(ptr noundef %0, ptr noundef %1)
  %6 = tail call ptr @l_Lean_Omega_Constraint_scale(ptr noundef %2, ptr noundef %3)
  %7 = tail call ptr @l_Lean_Omega_Constraint_add(ptr noundef %5, ptr noundef %6)
  %8 = ptrtoint ptr %5 to i64
  %9 = and i64 %8, 1
  %.not = icmp eq i64 %9, 0
  br i1 %.not, label %10, label %lean_dec.exit

10:                                               ; preds = %4
  %11 = load i32, ptr %5, align 4, !tbaa !6
  %12 = icmp sgt i32 %11, 1
  br i1 %12, label %13, label %15, !prof !5

13:                                               ; preds = %10
  %14 = add nsw i32 %11, -1
  store i32 %14, ptr %5, align 4, !tbaa !6
  br label %lean_dec.exit

15:                                               ; preds = %10
  %.not.i = icmp eq i32 %11, 0
  br i1 %.not.i, label %lean_dec.exit, label %16

16:                                               ; preds = %15
  tail call void @lean_dec_ref_cold(ptr noundef nonnull %5) #4
  br label %lean_dec.exit

lean_dec.exit:                                    ; preds = %16, %15, %13, %4
  ret ptr %7
}